(dp0
S'MCN-0202A'
p1
(dp2
S'order_no'
p3
g1
sS'country'
p4
S'02'
p5
sS'specification'
p6
(dp7
S'Orifice Size(mm)'
p8
(lp9
S'0.8'
p10
aS'1.2'
p11
aS'1.6'
p12
aS'2'
p13
aS'2.4'
p14
aS'2.8'
p15
aS'3.2'
p16
asS'Cutting Thickness(mm)'
p17
(lp18
S'3-10'
p19
aS'10-25'
p20
aS'25-40'
p21
aS'40-60'
p22
aS'60-100'
p23
aS'100-200'
p24
aS'200-300'
p25
asS'Model No'
p26
(lp27
S'1/32'
p28
aS'3/64'
p29
aS'1/16'
p30
aS'5/64'
p31
aS'3/32'
p32
aS'7/64'
p33
aS'1/8'
p34
assS'feaList'
p35
(lp36
sS'typeDetail'
p37
S'ANM British Type Cutting Nozzle'
p38
sS'typeInShort'
p39
S'cutting nozzle'
p40
ssS'MCN-0701'
p41
(dp42
g3
g41
sg4
S'07'
p43
sg6
(dp44
S'Orifice Size(mm)'
p45
(lp46
S'0.7'
p47
aS'1'
p48
aS'1.2'
p49
aS'1.6'
p50
aS'2'
p51
aS'2.5'
p52
aS'3'
p53
asS'Cutting Thickness(mm)'
p54
(lp55
S'3-10'
p56
aS'10-25'
p57
aS'25-50'
p58
aS'50-80'
p59
aS'80-120'
p60
aS'120-200'
p61
aS'200-300'
p62
asS'Model No'
p63
(lp64
S'7/10'
p65
aS'10/10'
p66
aS'12/10'
p67
aS'16/10'
p68
aS'20/10'
p69
aS'25/10'
p70
aS'30/10'
p71
assg35
(lp72
sg37
S'G1-P French Type Cutting Nozzle'
p73
sg39
g40
ssS'MCN-0702'
p74
(dp75
g3
g74
sg4
S'07'
p76
sg6
(dp77
S'Orifice Size(mm)'
p78
(lp79
S'0.7'
p80
aS'1'
p81
aS'1.2'
p82
aS'1.6'
p83
aS'2'
p84
aS'2.5'
p85
aS'3'
p86
asS'Cutting Thickness(mm)'
p87
(lp88
S'3-10'
p89
aS'10-25'
p90
aS'25-50'
p91
aS'50-80'
p92
aS'80-120'
p93
aS'120-200'
p94
aS'200-300'
p95
asS'Model No'
p96
(lp97
S'7/10'
p98
aS'10/10'
p99
aS'12/10'
p100
aS'16/10'
p101
aS'20/10'
p102
aS'25/10'
p103
aS'30/10'
p104
assg35
(lp105
sg37
S'G1-A French Type Cutting Nozzle'
p106
sg39
g40
ssS'MCN-0102'
p107
(dp108
g3
g107
sg4
S'01'
p109
sg6
(dp110
S'Orifice Size(mm)'
p111
(lp112
S'0.7'
p113
aS'0.8'
p114
aS'1'
p115
aS'1.2'
p116
aS'1.5'
p117
aS'1.8'
p118
aS'2.1'
p119
aS'2.5'
p120
aS'3'
p121
aS'3.5'
p122
aS'4'
p123
asS'Cutting Thickness(mm)'
p124
(lp125
S'1-3'
p126
aS'3-6'
p127
aS'6-10'
p128
aS'10-20'
p129
aS'20-40'
p130
aS'40-60'
p131
aS'60-80'
p132
aS'80-125'
p133
aS'125-200'
p134
aS'200-250'
p135
aS'250-300'
p136
asS'Model No'
p137
(lp138
S'000'
p139
aS'00'
p140
aS'0'
p141
aS'1'
p142
aS'2'
p143
aS'3'
p144
aS'4'
p145
aS'5'
p146
aS'6'
p147
aS'7'
p148
aS'8'
p149
assg35
(lp150
sg37
S'1-101 Acetylene American Type Cutting Nozzle'
p151
sg39
g40
ssS'MCN-0103'
p152
(dp153
g3
g152
sg4
S'01'
p154
sg6
(dp155
S'Orifice Size(mm)'
p156
(lp157
S'0.8'
p158
aS'0.9'
p159
aS'1'
p160
aS'1.2'
p161
aS'1.6'
p162
aS'2'
p163
aS'2.4'
p164
aS'2.8'
p165
aS'3.2'
p166
aS'3.5'
p167
aS'4'
p168
asS'Cutting Thickness(mm)'
p169
(lp170
S'1-5'
p171
aS'5-10'
p172
aS'10-15'
p173
aS'15-25'
p174
aS'25-50'
p175
aS'50-100'
p176
aS'100-175'
p177
aS'175-250'
p178
aS'250-300'
p179
aS'200-250'
p180
aS'250-300'
p181
asS'Model No'
p182
(lp183
S'000'
p184
aS'00'
p185
ag141
ag142
ag143
ag144
ag145
ag146
ag147
ag148
ag149
assg35
(lp186
sg37
S'6290NX Propane American Type Cutting Nozzle'
p187
sg39
g40
ssS'MCN-0101'
p188
(dp189
g3
g188
sg4
S'01'
p190
sg6
(dp191
S'Orifice Size(mm)'
p192
(lp193
S'0.7'
p194
aS'0.8'
p195
aS'1'
p196
aS'1.2'
p197
aS'1.5'
p198
aS'1.8'
p199
aS'2.1'
p200
aS'2.5'
p201
aS'3.1'
p202
aS'3.6'
p203
aS'4.1'
p204
asS'Cutting Thickness(mm)'
p205
(lp206
S'1-3'
p207
aS'3-6'
p208
aS'6-10'
p209
aS'10-20'
p210
aS'20-40'
p211
aS'40-60'
p212
aS'60-80'
p213
aS'80-125'
p214
aS'125-200'
p215
aS'200-250'
p216
aS'250-300'
p217
asS'Model No'
p218
(lp219
S'000'
p220
aS'00'
p221
ag141
ag142
ag143
ag144
ag145
ag146
ag147
ag148
ag149
assg35
(lp222
sg37
S'GPN Propane American Type Cutting Nozzle'
p223
sg39
g40
ssS'MCN-0104'
p224
(dp225
g3
g224
sg4
S'01'
p226
sg6
(dp227
S'Orifice Size(mm)'
p228
(lp229
S'0.7'
p230
aS'0.8'
p231
aS'1'
p232
aS'1.2'
p233
aS'1.5'
p234
aS'1.8'
p235
aS'2.1'
p236
aS'2.5'
p237
aS'3'
p238
aS'3.5'
p239
aS'4'
p240
asS'Cutting Thickness(mm)'
p241
(lp242
S'1-3'
p243
aS'3-6'
p244
aS'6-10'
p245
aS'10-20'
p246
aS'20-40'
p247
aS'40-60'
p248
aS'60-80'
p249
aS'80-125'
p250
aS'125-200'
p251
aS'200-250'
p252
aS'250-300'
p253
asS'Model No'
p254
(lp255
S'000'
p256
aS'00'
p257
ag141
ag142
ag143
ag144
ag145
ag146
ag147
ag148
ag149
assg35
(lp258
sg37
S'6290 Acetylene American Type Cutting Nozzle'
p259
sg39
g40
ssS'MCN-0201'
p260
(dp261
g3
g260
sg4
S'02'
p262
sg6
(dp263
S'Orifice Size(mm)'
p264
(lp265
S'0.8'
p266
aS'1.2'
p267
aS'1.6'
p268
aS'2'
p269
aS'2.4'
p270
aS'2.8'
p271
aS'3.2'
p272
asS'Cutting Thickness(mm)'
p273
(lp274
S'3-10'
p275
aS'10-25'
p276
aS'25-40'
p277
aS'40-60'
p278
aS'60-100'
p279
aS'100-200'
p280
aS'200-300'
p281
asS'Model No'
p282
(lp283
S'1/32'
p284
aS'3/64'
p285
aS'1/16'
p286
aS'5/64'
p287
aS'3/32'
p288
aS'7/64'
p289
aS'1/8'
p290
assg35
(lp291
sg37
S'PNME British Type Cutting Nozzle'
p292
sg39
g40
ssS'MCN-0201A'
p293
(dp294
g3
g293
sg4
S'02'
p295
sg6
(dp296
S'Orifice Size(mm)'
p297
(lp298
S'0.8'
p299
aS'1.2'
p300
aS'1.6'
p301
aS'2'
p302
aS'2.4'
p303
aS'2.8'
p304
aS'3.2'
p305
asS'Cutting Thickness(mm)'
p306
(lp307
S'3-10'
p308
aS'10-25'
p309
aS'25-40'
p310
aS'40-60'
p311
aS'60-100'
p312
aS'100-200'
p313
aS'200-300'
p314
asS'Model No'
p315
(lp316
S'1/32'
p317
aS'3/64'
p318
aS'1/16'
p319
aS'5/64'
p320
aS'3/32'
p321
aS'7/64'
p322
aS'1/8'
p323
assg35
(lp324
sg37
S'PNM British Type Cutting Nozzle'
p325
sg39
g40
ssS'MCN-0202'
p326
(dp327
g3
g326
sg4
S'02'
p328
sg6
(dp329
S'Orifice Size(mm)'
p330
(lp331
S'0.8'
p332
aS'1.2'
p333
aS'1.6'
p334
aS'2'
p335
aS'2.4'
p336
aS'2.8'
p337
aS'3.2'
p338
asS'Cutting Thickness(mm)'
p339
(lp340
S'3-10'
p341
aS'10-25'
p342
aS'25-40'
p343
aS'40-60'
p344
aS'60-100'
p345
aS'100-200'
p346
aS'200-300'
p347
asS'Model No'
p348
(lp349
S'1/32'
p350
aS'3/64'
p351
aS'1/16'
p352
aS'5/64'
p353
aS'3/32'
p354
aS'7/64'
p355
aS'1/8'
p356
assg35
(lp357
sg37
S'ANME British Type Cutting Nozzle'
p358
sg39
g40
ssS'MCN-0902'
p359
(dp360
g3
g359
sg4
S'09'
p361
sg6
(dp362
S'Orifice Size(mm)'
p363
(lp364
S'0.8'
p365
aS'0.9'
p366
aS'1'
p367
aS'1.5'
p368
aS'2'
p369
aS'2.4'
p370
aS'3'
p371
asS'Cutting Thickness(mm)'
p372
(lp373
S'3-6'
p374
aS'6-10'
p375
aS'10-15'
p376
aS'15-25'
p377
aS'25-125'
p378
aS'125-250'
p379
aS'250-300'
p380
asS'Model No'
p381
(lp382
S'#2'
p383
aS'#3'
p384
aS'#4'
p385
aS'#6'
p386
aS'#8'
p387
aS'#10'
p388
aS'#12'
p389
assg35
(lp390
sg37
S'1502 Acetylene Brazil Type Cutting Nozzle'
p391
sg39
g40
ssS'MCN-0101A'
p392
(dp393
g3
g392
sg4
S'01'
p394
sg6
(dp395
S'Orifice Size(mm)'
p396
(lp397
S'0.8'
p398
aS'1'
p399
aS'1.2'
p400
aS'1.5'
p401
aS'1.8'
p402
asS'Cutting Thickness(mm)'
p403
(lp404
S'3-6'
p405
aS'6-10'
p406
aS'10-20'
p407
aS'20-40'
p408
aS'40-60'
p409
asS'Model No'
p410
(lp411
S'00'
p412
ag141
ag142
ag143
ag144
assg35
(lp413
sg37
S'3-GPN Propane American Type Cutting Nozzle'
p414
sg39
g40
ssS'MCN-0901'
p415
(dp416
g3
g415
sg4
S'09'
p417
sg6
(dp418
S'Orifice Size(mm)'
p419
(lp420
S'0.6'
p421
aS'0.8'
p422
aS'1'
p423
aS'1.5'
p424
aS'2'
p425
aS'2.5'
p426
aS'3'
p427
aS'3.6'
p428
aS'4'
p429
asS'Cutting Thickness(mm)'
p430
(lp431
S'3-6'
p432
aS'6-10'
p433
aS'10-25'
p434
aS'25-50'
p435
aS'50-100'
p436
aS'100-150'
p437
aS'150-200'
p438
aS'200-250'
p439
aS'250-350'
p440
asS'Model No'
p441
(lp442
S'#2'
p443
aS'#3'
p444
aS'#4'
p445
aS'#6'
p446
aS'#8'
p447
aS'#10'
p448
aS'#12'
p449
aS'#14'
p450
aS'#16'
p451
assg35
(lp452
sg37
S'1503 Propane Brazil Type Cutting Nozzle'
p453
sg39
g40
ssS'MCN-0407'
p454
(dp455
g3
g454
sg4
S'04'
p456
sg6
(dp457
S'Orifice Size(mm)'
p458
(lp459
S'1P'
p460
aS'2P'
p461
aS'3P'
p462
aS'4P'
p463
asS'Cutting Thickness(mm)'
p464
(lp465
S'0.7'
p466
aS'0.9'
p467
aS'1.1'
p468
aS'1.3'
p469
assg35
(lp470
sg37
S'ST8-P Japan Type Cutting Nozzle'
p471
sg39
g40
ssS'MCN-0406'
p472
(dp473
g3
g472
sg4
S'04'
p474
sg6
(dp475
S'Orifice Size(mm)'
p476
(lp477
S'1'
p478
aS'1.3'
p479
aS'1.6'
p480
asS'Cutting Thickness(mm)'
p481
(lp482
S'1-15'
p483
aS'15-50'
p484
aS'50-100'
p485
asS'Model No'
p486
(lp487
S'#1'
p488
aS'#2'
p489
aS'#3'
p490
assg35
(lp491
sg37
S'"A"AC Japan Type Cutting Nozzle'
p492
sg39
g40
ssS'MCN-0405'
p493
(dp494
g3
g493
sg4
S'04'
p495
sg6
(dp496
S'Orifice Size(mm)'
p497
(lp498
S'1'
p499
aS'1.3'
p500
aS'1.6'
p501
asS'Cutting Thickness(mm)'
p502
(lp503
S'1-15'
p504
aS'15-50'
p505
aS'50-100'
p506
asS'Model No'
p507
(lp508
S'#1'
p509
aS'#2'
p510
aS'#3'
p511
assg35
(lp512
sg37
S'"A"LPG Japan Type Cutting Nozzle'
p513
sg39
g40
ssS'MCN-0404'
p514
(dp515
g3
g514
sg4
S'04'
p516
sg6
(dp517
S'Orifice Size(mm)'
p518
(lp519
S'0.7'
p520
aS'0.9'
p521
aS'1.1'
p522
asS'Cutting Thickness(mm)'
p523
(lp524
S'1-5'
p525
aS'5-15'
p526
aS'15-30'
p527
asS'Model No'
p528
(lp529
S'#1'
p530
aS'#2'
p531
aS'#3'
p532
assg35
(lp533
sg37
S'"M"AC Japan Type Cutting Nozzle'
p534
sg39
g40
ssS'MCN-0403'
p535
(dp536
g3
g535
sg4
S'04'
p537
sg6
(dp538
S'Orifice Size(mm)'
p539
(lp540
S'0.7'
p541
aS'0.9'
p542
aS'1.1'
p543
asS'Cutting Thickness(mm)'
p544
(lp545
S'1-5'
p546
aS'5-15'
p547
aS'15-30'
p548
asS'Model No'
p549
(lp550
S'#1'
p551
aS'#2'
p552
aS'#3'
p553
assg35
(lp554
sg37
S'"M"LPG Japan Type Cutting Nozzle'
p555
sg39
g40
ssS'MCN-0402'
p556
(dp557
g3
g556
sg4
S'04'
p558
sg6
(dp559
S'Orifice Size(mm)'
p560
(lp561
S'0.8'
p562
aS'1'
p563
aS'1.2'
p564
aS'1.4'
p565
aS'1.6'
p566
aS'1.8'
p567
aS'2'
p568
aS'2.4'
p569
aS'2.8'
p570
aS'3.2'
p571
asS'Cutting Thickness(mm)'
p572
(lp573
S'0-5'
p574
aS'5-10'
p575
aS'10-15'
p576
aS'15-30'
p577
aS'30-40'
p578
aS'40-50'
p579
aS'50-100'
p580
aS'100-150'
p581
aS'150-250'
p582
aS'250-300'
p583
asS'Model No'
p584
(lp585
S'00'
p586
ag141
ag142
ag143
ag144
ag145
ag146
ag147
ag148
ag149
assg35
(lp587
sg37
S'102 Acetylene Japan Type Cutting Nozzle'
p588
sg39
g40
ssS'MCN-0401'
p589
(dp590
g3
g589
sg4
S'04'
p591
sg6
(dp592
S'Orifice Size(mm)'
p593
(lp594
S'0.8'
p595
aS'1'
p596
aS'1.2'
p597
aS'1.4'
p598
aS'1.6'
p599
aS'1.8'
p600
aS'2'
p601
aS'2.4'
p602
aS'2.8'
p603
aS'3.2'
p604
asS'Cutting Thickness(mm)'
p605
(lp606
S'0-5'
p607
aS'5-10'
p608
aS'10-15'
p609
aS'15-30'
p610
aS'30-40'
p611
aS'40-50'
p612
aS'50-100'
p613
aS'100-150'
p614
aS'150-250'
p615
aS'250-300'
p616
asS'Model No'
p617
(lp618
S'00'
p619
ag141
ag142
ag143
ag144
ag145
ag146
ag147
ag148
ag149
assg35
(lp620
sg37
S'106 Propane Japan Type Cutting Nozzle'
p621
sg39
g40
ssS'MCN-0408'
p622
(dp623
g3
g622
sg4
S'04'
p624
sg6
(dp625
S'Orifice Size(mm)'
p626
(lp627
S'0.7'
p628
aS'0.9'
p629
aS'1.1'
p630
aS'1.3'
p631
asS'Cutting Thickness(mm)'
p632
(lp633
S'1-5'
p634
aS'5-15'
p635
aS'15-30'
p636
aS'30-50'
p637
asS'Model No'
p638
(lp639
S'1A'
p640
aS'2A'
p641
aS'3A'
p642
aS'4A'
p643
assg35
(lp644
sg37
S'ST8-A Japan Type Cutting Nozzle'
p645
sg39
g40
ssS'MCN-0102A'
p646
(dp647
g3
g646
sg4
S'01'
p648
sg6
(dp649
S'Orifice Size(mm)'
p650
(lp651
S'0.7'
p652
aS'0.8'
p653
aS'1'
p654
aS'1.2'
p655
aS'1.5'
p656
aS'1.8'
p657
aS'2.1'
p658
aS'2.5'
p659
asS'Cutting Thickness(mm)'
p660
(lp661
S'1-3'
p662
aS'3-6'
p663
aS'6-10'
p664
aS'10-20'
p665
aS'20-40'
p666
aS'40-60'
p667
aS'60-80'
p668
aS'80-125'
p669
asS'Model No'
p670
(lp671
S'000'
p672
aS'00'
p673
ag141
ag142
ag143
ag144
ag145
ag146
assg35
(lp674
sg37
S'3-101 Acetylene American Type Cutting Nozzle'
p675
sg39
g40
ss.